target datalayout = "e-m:e-p270:32:32-p271:32:32-p272:64:64-i64:64-i128:128-f80:128-n8:16:32:64-S128"
target triple = "x86_64-pc-linux-gnu"

%struct.JNINativeInterface_ = type { ptr, ptr, ptr, ptr, ptr, ptr, ptr, ptr, ptr, ptr, ptr, ptr, ptr, ptr, ptr, ptr, ptr, ptr, ptr, ptr, ptr, ptr, ptr, ptr, ptr, ptr, ptr, ptr, ptr, ptr, ptr, ptr, ptr, ptr, ptr, ptr, ptr, ptr, ptr, ptr, ptr, ptr, ptr, ptr, ptr, ptr, ptr, ptr, ptr, ptr, ptr, ptr, ptr, ptr, ptr, ptr, ptr, ptr, ptr, ptr, ptr, ptr, ptr, ptr, ptr, ptr, ptr, ptr, ptr, ptr, ptr, ptr, ptr, ptr, ptr, ptr, ptr, ptr, ptr, ptr, ptr, ptr, ptr, ptr, ptr, ptr, ptr, ptr, ptr, ptr, ptr, ptr, ptr, ptr, ptr, ptr, ptr, ptr, ptr, ptr, ptr, ptr, ptr, ptr, ptr, ptr, ptr, ptr, ptr, ptr, ptr, ptr, ptr, ptr, ptr, ptr, ptr, ptr, ptr, ptr, ptr, ptr, ptr, ptr, ptr, ptr, ptr, ptr, ptr, ptr, ptr, ptr, ptr, ptr, ptr, ptr, ptr, ptr, ptr, ptr, ptr, ptr, ptr, ptr, ptr, ptr, ptr, ptr, ptr, ptr, ptr, ptr, ptr, ptr, ptr, ptr, ptr, ptr, ptr, ptr, ptr, ptr, ptr, ptr, ptr, ptr, ptr, ptr, ptr, ptr, ptr, ptr, ptr, ptr, ptr, ptr, ptr, ptr, ptr, ptr, ptr, ptr, ptr, ptr, ptr, ptr, ptr, ptr, ptr, ptr, ptr, ptr, ptr, ptr, ptr, ptr, ptr, ptr, ptr, ptr, ptr, ptr, ptr, ptr, ptr, ptr, ptr, ptr, ptr, ptr, ptr, ptr, ptr, ptr, ptr, ptr, ptr, ptr, ptr, ptr, ptr, ptr, ptr, ptr, ptr, ptr, ptr, ptr, ptr, ptr, ptr, ptr, ptr, ptr, ptr }
%struct.CK_FUNCTION_LIST = type { %struct.CK_VERSION, ptr, ptr, ptr, ptr, ptr, ptr, ptr, ptr, ptr, ptr, ptr, ptr, ptr, ptr, ptr, ptr, ptr, ptr, ptr, ptr, ptr, ptr, ptr, ptr, ptr, ptr, ptr, ptr, ptr, ptr, ptr, ptr, ptr, ptr, ptr, ptr, ptr, ptr, ptr, ptr, ptr, ptr, ptr, ptr, ptr, ptr, ptr, ptr, ptr, ptr, ptr, ptr, ptr, ptr, ptr, ptr, ptr, ptr, ptr, ptr, ptr, ptr, ptr, ptr, ptr, ptr, ptr, ptr }
%struct.CK_VERSION = type { i8, i8 }
%struct.CK_MECHANISM_INFO = type { i64, i64, i64 }

@.str.9 = private unnamed_addr constant [7 x i8] c"<init>\00", align 1
@.str.15 = private unnamed_addr constant [46 x i8] c"sun/security/pkcs11/wrapper/CK_MECHANISM_INFO\00", align 1
@.str.16 = private unnamed_addr constant [7 x i8] c"(JJJ)V\00", align 1

; Function Attrs: nounwind uwtable
define hidden ptr @ckMechanismInfoPtrToJMechanismInfo(ptr noundef %0, ptr noundef %1) #0 {
  %3 = alloca ptr, align 8
  %4 = alloca ptr, align 8
  %5 = alloca ptr, align 8
  %6 = alloca ptr, align 8
  %7 = alloca ptr, align 8
  %8 = alloca ptr, align 8
  %9 = alloca i64, align 8
  %10 = alloca i64, align 8
  %11 = alloca i64, align 8
  store ptr %0, ptr %4, align 8
  store ptr %1, ptr %5, align 8
  %12 = load ptr, ptr %4, align 8
  %13 = load ptr, ptr %12, align 8
  %14 = getelementptr inbounds %struct.JNINativeInterface_, ptr %13, i32 0, i32 6
  %15 = load ptr, ptr %14, align 8
  %16 = load ptr, ptr %4, align 8
  %17 = call ptr %15(ptr noundef %16, ptr noundef @.str.15)
  store ptr %17, ptr %6, align 8
  %18 = load ptr, ptr %6, align 8
  %19 = icmp eq ptr %18, null
  br i1 %19, label %20, label %21

20:                                               ; preds = %2
  store ptr null, ptr %3, align 8
  br label %64

21:                                               ; preds = %2
  %22 = load ptr, ptr %4, align 8
  %23 = load ptr, ptr %22, align 8
  %24 = getelementptr inbounds %struct.JNINativeInterface_, ptr %23, i32 0, i32 33
  %25 = load ptr, ptr %24, align 8
  %26 = load ptr, ptr %4, align 8
  %27 = load ptr, ptr %6, align 8
  %28 = call ptr %25(ptr noundef %26, ptr noundef %27, ptr noundef @.str.9, ptr noundef @.str.16)
  store ptr %28, ptr %7, align 8
  %29 = load ptr, ptr %7, align 8
  %30 = icmp eq ptr %29, null
  br i1 %30, label %31, label %32

31:                                               ; preds = %21
  store ptr null, ptr %3, align 8
  br label %64

32:                                               ; preds = %21
  %33 = load ptr, ptr %5, align 8
  %34 = getelementptr inbounds %struct.CK_MECHANISM_INFO, ptr %33, i32 0, i32 0
  %35 = load i64, ptr %34, align 8
  store i64 %35, ptr %9, align 8
  %36 = load ptr, ptr %5, align 8
  %37 = getelementptr inbounds %struct.CK_MECHANISM_INFO, ptr %36, i32 0, i32 1
  %38 = load i64, ptr %37, align 8
  store i64 %38, ptr %10, align 8
  %39 = load ptr, ptr %5, align 8
  %40 = getelementptr inbounds %struct.CK_MECHANISM_INFO, ptr %39, i32 0, i32 2
  %41 = load i64, ptr %40, align 8
  store i64 %41, ptr %11, align 8
  %42 = load ptr, ptr %4, align 8
  %43 = load ptr, ptr %42, align 8
  %44 = getelementptr inbounds %struct.JNINativeInterface_, ptr %43, i32 0, i32 28
  %45 = load ptr, ptr %44, align 8
  %46 = load ptr, ptr %4, align 8
  %47 = load ptr, ptr %6, align 8
  %48 = load ptr, ptr %7, align 8
  %49 = load i64, ptr %9, align 8
  %50 = load i64, ptr %10, align 8
  %51 = load i64, ptr %11, align 8
  %52 = call ptr (ptr, ptr, ptr, ...) %45(ptr noundef %46, ptr noundef %47, ptr noundef %48, i64 noundef %49, i64 noundef %50, i64 noundef %51)
  store ptr %52, ptr %8, align 8
  %53 = load ptr, ptr %8, align 8
  %54 = icmp eq ptr %53, null
  br i1 %54, label %55, label %56

55:                                               ; preds = %32
  store ptr null, ptr %3, align 8
  br label %64

56:                                               ; preds = %32
  %57 = load ptr, ptr %4, align 8
  %58 = load ptr, ptr %57, align 8
  %59 = getelementptr inbounds %struct.JNINativeInterface_, ptr %58, i32 0, i32 23
  %60 = load ptr, ptr %59, align 8
  %61 = load ptr, ptr %4, align 8
  %62 = load ptr, ptr %6, align 8
  call void %60(ptr noundef %61, ptr noundef %62)
  %63 = load ptr, ptr %8, align 8
  store ptr %63, ptr %3, align 8
  br label %64

64:                                               ; preds = %56, %55, %31, %20
  %65 = load ptr, ptr %3, align 8
  ret ptr %65
}

; Function Attrs: nounwind uwtable
define ptr @Java_sun_security_pkcs11_wrapper_PKCS11_C_1GetMechanismInfo(ptr noundef %0, ptr noundef %1, i64 noundef %2, i64 noundef %3) #0 {
  %5 = alloca ptr, align 8
  %6 = alloca ptr, align 8
  %7 = alloca ptr, align 8
  %8 = alloca i64, align 8
  %9 = alloca i64, align 8
  %10 = alloca i64, align 8
  %11 = alloca i64, align 8
  %12 = alloca %struct.CK_MECHANISM_INFO, align 8
  %13 = alloca ptr, align 8
  %14 = alloca i64, align 8
  %15 = alloca ptr, align 8
  store ptr %0, ptr %6, align 8
  store ptr %1, ptr %7, align 8
  store i64 %2, ptr %8, align 8
  store i64 %3, ptr %9, align 8
  store ptr null, ptr %13, align 8
  %16 = load ptr, ptr %6, align 8
  %17 = load ptr, ptr %7, align 8
  %18 = call ptr @getFunctionList(ptr noundef %16, ptr noundef %17)
  store ptr %18, ptr %15, align 8
  %19 = load ptr, ptr %15, align 8
  %20 = icmp eq ptr %19, null
  br i1 %20, label %21, label %22

21:                                               ; preds = %4
  store ptr null, ptr %5, align 8
  br label %40

22:                                               ; preds = %4
  %23 = load i64, ptr %8, align 8
  store i64 %23, ptr %10, align 8
  %24 = load i64, ptr %9, align 8
  store i64 %24, ptr %11, align 8
  %25 = load ptr, ptr %15, align 8
  %26 = getelementptr inbounds %struct.CK_FUNCTION_LIST, ptr %25, i32 0, i32 9
  %27 = load ptr, ptr %26, align 8
  %28 = load i64, ptr %10, align 8
  %29 = load i64, ptr %11, align 8
  %30 = call i64 %27(i64 noundef %28, i64 noundef %29, ptr noundef %12)
  store i64 %30, ptr %14, align 8
  %31 = load ptr, ptr %6, align 8
  %32 = load i64, ptr %14, align 8
  %33 = call i64 @ckAssertReturnValueOK(ptr noundef %31, i64 noundef %32)
  %34 = icmp eq i64 %33, 0
  br i1 %34, label %35, label %38

35:                                               ; preds = %22
  %36 = load ptr, ptr %6, align 8
  %37 = call ptr @ckMechanismInfoPtrToJMechanismInfo(ptr noundef %36, ptr noundef %12)
  store ptr %37, ptr %13, align 8
  br label %38

38:                                               ; preds = %35, %22
  %39 = load ptr, ptr %13, align 8
  store ptr %39, ptr %5, align 8
  br label %40

40:                                               ; preds = %38, %21
  %41 = load ptr, ptr %5, align 8
  ret ptr %41
}