; Function Attrs: nounwind uwtable
define ptr @Java_sun_security_pkcs11_wrapper_PKCS11_C_1GetMechanismInfo(ptr noundef %0, ptr noundef %1, i64 noundef %2, i64 noundef %3) local_unnamed_addr #1 {
  %5 = alloca %struct.CK_MECHANISM_INFO, align 8
  %6 = tail call ptr @getFunctionList(ptr noundef %0, ptr noundef %1) #7
  %7 = icmp eq ptr %6, null
  br i1 %7, label %ckMechanismInfoPtrToJMechanismInfo.exit, label %8

8:                                                ; preds = %4
  %9 = getelementptr inbounds i8, ptr %6, i64 72
  %10 = load ptr, ptr %9, align 8
  %11 = call i64 %10(i64 noundef %2, i64 noundef %3, ptr noundef nonnull %5) #7
  %12 = call i64 @ckAssertReturnValueOK(ptr noundef %0, i64 noundef %11) #7
  %13 = icmp eq i64 %12, 0
  br i1 %13, label %14, label %ckMechanismInfoPtrToJMechanismInfo.exit

14:                                               ; preds = %8
  %15 = load ptr, ptr %0, align 8
  %16 = getelementptr inbounds i8, ptr %15, i64 48
  %17 = load ptr, ptr %16, align 8
  %18 = call ptr %17(ptr noundef nonnull %0, ptr noundef nonnull @.str.15) #7
  %19 = icmp eq ptr %18, null
  br i1 %19, label %ckMechanismInfoPtrToJMechanismInfo.exit, label %20

20:                                               ; preds = %14
  %21 = load ptr, ptr %0, align 8
  %22 = getelementptr inbounds i8, ptr %21, i64 264
  %23 = load ptr, ptr %22, align 8
  %24 = call ptr %23(ptr noundef nonnull %0, ptr noundef nonnull %18, ptr noundef nonnull @.str.9, ptr noundef nonnull @.str.16) #7
  %25 = icmp eq ptr %24, null
  br i1 %25, label %ckMechanismInfoPtrToJMechanismInfo.exit, label %26

26:                                               ; preds = %20
  %27 = load i64, ptr %5, align 8
  %28 = getelementptr inbounds i8, ptr %5, i64 8
  %29 = load i64, ptr %28, align 8
  %30 = getelementptr inbounds i8, ptr %5, i64 16
  %31 = load i64, ptr %30, align 8
  %32 = load ptr, ptr %0, align 8
  %33 = getelementptr inbounds i8, ptr %32, i64 224
  %34 = load ptr, ptr %33, align 8
  %35 = call ptr (ptr, ptr, ptr, ...) %34(ptr noundef nonnull %0, ptr noundef nonnull %18, ptr noundef nonnull %24, i64 noundef %27, i64 noundef %29, i64 noundef %31) #7
  %36 = icmp eq ptr %35, null
  br i1 %36, label %ckMechanismInfoPtrToJMechanismInfo.exit, label %37

37:                                               ; preds = %26
  %38 = load ptr, ptr %0, align 8
  %39 = getelementptr inbounds i8, ptr %38, i64 184
  %40 = load ptr, ptr %39, align 8
  call void %40(ptr noundef nonnull %0, ptr noundef nonnull %18) #7
  br label %ckMechanismInfoPtrToJMechanismInfo.exit

ckMechanismInfoPtrToJMechanismInfo.exit:          ; preds = %37, %26, %20, %14, %8, %4
  %.0 = phi ptr [ null, %4 ], [ null, %8 ], [ %35, %37 ], [ null, %14 ], [ null, %20 ], [ null, %26 ]
  ret ptr %.0
}